; ModuleID = '51/395.c'
source_filename = "51/395.c"
target datalayout = "e-m:e-p270:32:32-p271:32:32-p272:64:64-i64:64-f80:128-n8:16:32:64-S128"
target triple = "x86_64-pc-linux-gnu"

@.str = private unnamed_addr constant [3 x i8] c"%d\00", align 1
@.str.1 = private unnamed_addr constant [4 x i8] c"NO\0A\00", align 1
@.str.2 = private unnamed_addr constant [4 x i8] c"%d\0A\00", align 1
@.str.3 = private unnamed_addr constant [3 x i8] c"%c\00", align 1
@.str.4 = private unnamed_addr constant [2 x i8] c"\0A\00", align 1

; Function Attrs: noinline nounwind uwtable
define dso_local i32 @main() #0 {
  %1 = alloca i32, align 4
  %2 = alloca i32, align 4
  %3 = alloca [501 x i8], align 16
  %4 = alloca i32, align 4
  %5 = alloca [501 x i32], align 16
  %6 = alloca i32, align 4
  %7 = alloca i32, align 4
  %8 = alloca i32, align 4
  %9 = alloca i32, align 4
  %10 = alloca i32, align 4
  %11 = alloca i32, align 4
  store i32 0, i32* %1, align 4
  %12 = call i32 (i8*, ...) @__isoc99_scanf(i8* getelementptr inbounds ([3 x i8], [3 x i8]* @.str, i64 0, i64 0), i32* %2)
  %13 = getelementptr inbounds [501 x i8], [501 x i8]* %3, i64 0, i64 0
  %14 = call i32 (i8*, ...) bitcast (i32 (...)* @gets to i32 (i8*, ...)*)(i8* %13)
  %15 = getelementptr inbounds [501 x i8], [501 x i8]* %3, i64 0, i64 0
  %16 = call i32 (i8*, ...) bitcast (i32 (...)* @gets to i32 (i8*, ...)*)(i8* %15)
  %17 = getelementptr inbounds [501 x i8], [501 x i8]* %3, i64 0, i64 0
  %18 = call i64 @strlen(i8* %17) #4
  %19 = trunc i64 %18 to i32
  store i32 %19, i32* %4, align 4
  %20 = bitcast [501 x i32]* %5 to i8*
  call void @llvm.memset.p0i8.i64(i8* align 16 %20, i8 0, i64 2004, i1 false)
  store i32 0, i32* %6, align 4
  br label %21

21:                                               ; preds = %96, %0
  %22 = load i32, i32* %6, align 4
  %23 = load i32, i32* %4, align 4
  %24 = icmp slt i32 %22, %23
  br i1 %24, label %25, label %99

25:                                               ; preds = %21
  %26 = load i32, i32* %6, align 4
  %27 = load i32, i32* %2, align 4
  %28 = add nsw i32 %26, %27
  %29 = load i32, i32* %4, align 4
  %30 = icmp sgt i32 %28, %29
  br i1 %30, label %31, label %32

31:                                               ; preds = %25
  br label %99

32:                                               ; preds = %25
  %33 = load i32, i32* %6, align 4
  %34 = sext i32 %33 to i64
  %35 = getelementptr inbounds [501 x i32], [501 x i32]* %5, i64 0, i64 %34
  %36 = load i32, i32* %35, align 4
  %37 = icmp eq i32 %36, -1
  br i1 %37, label %38, label %39

38:                                               ; preds = %32
  br label %96

39:                                               ; preds = %32
  %40 = load i32, i32* %6, align 4
  %41 = add nsw i32 %40, 1
  store i32 %41, i32* %7, align 4
  br label %42

42:                                               ; preds = %92, %39
  %43 = load i32, i32* %7, align 4
  %44 = load i32, i32* %4, align 4
  %45 = icmp slt i32 %43, %44
  br i1 %45, label %46, label %95

46:                                               ; preds = %42
  %47 = load i32, i32* %7, align 4
  %48 = load i32, i32* %2, align 4
  %49 = add nsw i32 %47, %48
  %50 = load i32, i32* %4, align 4
  %51 = icmp sgt i32 %49, %50
  br i1 %51, label %52, label %53

52:                                               ; preds = %46
  br label %95

53:                                               ; preds = %46
  store i32 1, i32* %9, align 4
  store i32 0, i32* %8, align 4
  br label %54

54:                                               ; preds = %76, %53
  %55 = load i32, i32* %8, align 4
  %56 = load i32, i32* %2, align 4
  %57 = icmp slt i32 %55, %56
  br i1 %57, label %58, label %79

58:                                               ; preds = %54
  %59 = load i32, i32* %6, align 4
  %60 = load i32, i32* %8, align 4
  %61 = add nsw i32 %59, %60
  %62 = sext i32 %61 to i64
  %63 = getelementptr inbounds [501 x i8], [501 x i8]* %3, i64 0, i64 %62
  %64 = load i8, i8* %63, align 1
  %65 = sext i8 %64 to i32
  %66 = load i32, i32* %7, align 4
  %67 = load i32, i32* %8, align 4
  %68 = add nsw i32 %66, %67
  %69 = sext i32 %68 to i64
  %70 = getelementptr inbounds [501 x i8], [501 x i8]* %3, i64 0, i64 %69
  %71 = load i8, i8* %70, align 1
  %72 = sext i8 %71 to i32
  %73 = icmp ne i32 %65, %72
  br i1 %73, label %74, label %75

74:                                               ; preds = %58
  store i32 0, i32* %9, align 4
  br label %79

75:                                               ; preds = %58
  br label %76

76:                                               ; preds = %75
  %77 = load i32, i32* %8, align 4
  %78 = add nsw i32 %77, 1
  store i32 %78, i32* %8, align 4
  br label %54

79:                                               ; preds = %74, %54
  %80 = load i32, i32* %9, align 4
  %81 = icmp eq i32 %80, 1
  br i1 %81, label %82, label %91

82:                                               ; preds = %79
  %83 = load i32, i32* %6, align 4
  %84 = sext i32 %83 to i64
  %85 = getelementptr inbounds [501 x i32], [501 x i32]* %5, i64 0, i64 %84
  %86 = load i32, i32* %85, align 4
  %87 = add nsw i32 %86, 1
  store i32 %87, i32* %85, align 4
  %88 = load i32, i32* %7, align 4
  %89 = sext i32 %88 to i64
  %90 = getelementptr inbounds [501 x i32], [501 x i32]* %5, i64 0, i64 %89
  store i32 -1, i32* %90, align 4
  br label %91

91:                                               ; preds = %82, %79
  br label %92

92:                                               ; preds = %91
  %93 = load i32, i32* %7, align 4
  %94 = add nsw i32 %93, 1
  store i32 %94, i32* %7, align 4
  br label %42

95:                                               ; preds = %52, %42
  br label %96

96:                                               ; preds = %95, %38
  %97 = load i32, i32* %6, align 4
  %98 = add nsw i32 %97, 1
  store i32 %98, i32* %6, align 4
  br label %21

99:                                               ; preds = %31, %21
  store i32 -1, i32* %10, align 4
  store i32 0, i32* %11, align 4
  store i32 0, i32* %6, align 4
  br label %100

100:                                              ; preds = %118, %99
  %101 = load i32, i32* %6, align 4
  %102 = load i32, i32* %4, align 4
  %103 = icmp slt i32 %101, %102
  br i1 %103, label %104, label %121

104:                                              ; preds = %100
  %105 = load i32, i32* %6, align 4
  %106 = sext i32 %105 to i64
  %107 = getelementptr inbounds [501 x i32], [501 x i32]* %5, i64 0, i64 %106
  %108 = load i32, i32* %107, align 4
  %109 = load i32, i32* %10, align 4
  %110 = icmp sgt i32 %108, %109
  br i1 %110, label %111, label %117

111:                                              ; preds = %104
  %112 = load i32, i32* %6, align 4
  %113 = sext i32 %112 to i64
  %114 = getelementptr inbounds [501 x i32], [501 x i32]* %5, i64 0, i64 %113
  %115 = load i32, i32* %114, align 4
  store i32 %115, i32* %10, align 4
  %116 = load i32, i32* %6, align 4
  store i32 %116, i32* %11, align 4
  br label %117

117:                                              ; preds = %111, %104
  br label %118

118:                                              ; preds = %117
  %119 = load i32, i32* %6, align 4
  %120 = add nsw i32 %119, 1
  store i32 %120, i32* %6, align 4
  br label %100

121:                                              ; preds = %100
  %122 = load i32, i32* %10, align 4
  %123 = add nsw i32 %122, 1
  %124 = icmp sle i32 %123, 1
  br i1 %124, label %125, label %127

125:                                              ; preds = %121
  %126 = call i32 (i8*, ...) @printf(i8* getelementptr inbounds ([4 x i8], [4 x i8]* @.str.1, i64 0, i64 0))
  store i32 0, i32* %1, align 4
  br label %166

127:                                              ; preds = %121
  %128 = load i32, i32* %10, align 4
  %129 = add nsw i32 %128, 1
  %130 = call i32 (i8*, ...) @printf(i8* getelementptr inbounds ([4 x i8], [4 x i8]* @.str.2, i64 0, i64 0), i32 %129)
  store i32 0, i32* %6, align 4
  br label %131

131:                                              ; preds = %163, %127
  %132 = load i32, i32* %6, align 4
  %133 = load i32, i32* %4, align 4
  %134 = icmp slt i32 %132, %133
  br i1 %134, label %135, label %166

135:                                              ; preds = %131
  %136 = load i32, i32* %6, align 4
  %137 = sext i32 %136 to i64
  %138 = getelementptr inbounds [501 x i32], [501 x i32]* %5, i64 0, i64 %137
  %139 = load i32, i32* %138, align 4
  %140 = load i32, i32* %10, align 4
  %141 = icmp eq i32 %139, %140
  br i1 %141, label %142, label %162

142:                                              ; preds = %135
  %143 = load i32, i32* %6, align 4
  store i32 %143, i32* %7, align 4
  br label %144

144:                                              ; preds = %157, %142
  %145 = load i32, i32* %7, align 4
  %146 = load i32, i32* %6, align 4
  %147 = load i32, i32* %2, align 4
  %148 = add nsw i32 %146, %147
  %149 = icmp slt i32 %145, %148
  br i1 %149, label %150, label %160

150:                                              ; preds = %144
  %151 = load i32, i32* %7, align 4
  %152 = sext i32 %151 to i64
  %153 = getelementptr inbounds [501 x i8], [501 x i8]* %3, i64 0, i64 %152
  %154 = load i8, i8* %153, align 1
  %155 = sext i8 %154 to i32
  %156 = call i32 (i8*, ...) @printf(i8* getelementptr inbounds ([3 x i8], [3 x i8]* @.str.3, i64 0, i64 0), i32 %155)
  br label %157

157:                                              ; preds = %150
  %158 = load i32, i32* %7, align 4
  %159 = add nsw i32 %158, 1
  store i32 %159, i32* %7, align 4
  br label %144

160:                                              ; preds = %144
  %161 = call i32 (i8*, ...) @printf(i8* getelementptr inbounds ([2 x i8], [2 x i8]* @.str.4, i64 0, i64 0))
  br label %162

162:                                              ; preds = %160, %135
  br label %163

163:                                              ; preds = %162
  %164 = load i32, i32* %6, align 4
  %165 = add nsw i32 %164, 1
  store i32 %165, i32* %6, align 4
  br label %131

166:                                              ; preds = %125, %131
  %167 = load i32, i32* %1, align 4
  ret i32 %167
}

declare dso_local i32 @__isoc99_scanf(i8*, ...) #1

declare dso_local i32 @gets(...) #1

; Function Attrs: nounwind readonly
declare dso_local i64 @strlen(i8*) #2

; Function Attrs: argmemonly nounwind willreturn
declare void @llvm.memset.p0i8.i64(i8* nocapture writeonly, i8, i64, i1 immarg) #3

declare dso_local i32 @printf(i8*, ...) #1


!llvm.module.flags = !{!0}
!llvm.ident = !{!1}

!0 = !{i32 1, !"wchar_size", i32 4}
!1 = !{!"clang version 10.0.0-4ubuntu1 "}
